; Function Attrs: nounwind uwtable
define hidden i32 @lj_opt_narrow_toint(ptr noundef %0, i32 noundef %1) local_unnamed_addr #0 {
  %3 = and i32 %1, 520093696
  %4 = icmp eq i32 %3, 67108864
  br i1 %4, label %5, label %11

5:                                                ; preds = %2
  %6 = trunc i32 %1 to i16
  %7 = getelementptr inbounds nuw i8, ptr %0, i64 184
  %8 = getelementptr inbounds nuw i8, ptr %0, i64 188
  store i16 24206, ptr %8, align 4, !tbaa !32
  store i16 %6, ptr %7, align 8, !tbaa !32
  %9 = getelementptr inbounds nuw i8, ptr %0, i64 186
  store i16 0, ptr %9, align 2, !tbaa !32
  %10 = tail call i32 @lj_opt_fold(ptr noundef %0) #6
  br label %11

11:                                               ; preds = %5, %2
  %.0 = phi i32 [ %10, %5 ], [ %1, %2 ]
  %12 = and i32 %.0, 520093696
  %13 = icmp eq i32 %12, 234881024
  br i1 %13, label %14, label %20

14:                                               ; preds = %11
  %15 = trunc i32 %.0 to i16
  %16 = getelementptr inbounds nuw i8, ptr %0, i64 184
  %17 = getelementptr inbounds nuw i8, ptr %0, i64 188
  store i16 23315, ptr %17, align 4, !tbaa !32
  store i16 %15, ptr %16, align 8, !tbaa !32
  %18 = getelementptr inbounds nuw i8, ptr %0, i64 186
  store i16 4718, ptr %18, align 2, !tbaa !32
  %19 = tail call i32 @lj_opt_fold(ptr noundef %0) #6
  br label %28

20:                                               ; preds = %11
  %21 = lshr i32 %.0, 24
  %22 = and i32 %21, 31
  %23 = add nsw i32 %22, -15
  %24 = icmp ult i32 %23, 5
  br i1 %24, label %26, label %25

25:                                               ; preds = %20
  tail call void @lj_trace_err(ptr noundef %0, i32 noundef 11) #7
  unreachable

26:                                               ; preds = %20
  %27 = tail call fastcc i32 @narrow_stripov(ptr noundef %0, i32 noundef %.0, i32 noundef 55, i32 noundef 627)
  br label %28

28:                                               ; preds = %26, %14
  %.012 = phi i32 [ %19, %14 ], [ %27, %26 ]
  ret i32 %.012
}